; Function Attrs: mustprogress nounwind uwtable
define hidden void @_ZN10JavaThread10smr_deleteEv(ptr noundef nonnull align 8 dereferenceable(1800) %0) local_unnamed_addr #0 align 2 {
  %2 = getelementptr inbounds i8, ptr %0, i64 888
  %3 = load i8, ptr %2, align 8
  %4 = trunc i8 %3 to i1
  br i1 %4, label %5, label %6

5:                                                ; preds = %1
  tail call void @_ZN17ThreadsSMRSupport10smr_deleteEP10JavaThread(ptr noundef nonnull %0) #21
  br label %10

6:                                                ; preds = %1
  %7 = load ptr, ptr %0, align 8
  %8 = getelementptr inbounds i8, ptr %7, i64 16
  %9 = load ptr, ptr %8, align 8
  tail call void %9(ptr noundef nonnull align 8 dereferenceable(1800) %0) #21
  br label %10

10:                                               ; preds = %6, %5
  ret void
}